target datalayout = "e-m:e-p270:32:32-p271:32:32-p272:64:64-i64:64-i128:128-f80:128-n8:16:32:64-S128"
target triple = "x86_64-pc-linux-gnu"

%struct.H5FS_t = type { %struct.H5C_cache_entry_t, i64, i64, i64, i64, i32, i16, i32, i32, i32, i64, i64, i64, i64, i32, i64, i64, ptr, i8, i32, i8, i8, i32, i64, i64, i64, ptr }
%struct.H5C_cache_entry_t = type { ptr, i64, i64, ptr, i8, ptr, i8, i8, i8, i8, i32, i8, i8, i8, i8, i8, i32, ptr, i32, i32, i32, i32, i32, i8, i8, ptr, ptr, ptr, ptr, ptr, ptr, i8, i32, i8, i64, ptr, i64, i64, i32, i8, i32, i32, i8, ptr, ptr, ptr }
%struct.H5FS_sinfo_t = type { %struct.H5C_cache_entry_t, ptr, i8, i32, i64, i64, i64, i64, i32, i32, i32, ptr, ptr }
%struct.H5FS_bin_t = type { i64, i64, i64, ptr }
%struct.H5FS_iter_ud_t = type { ptr, ptr, ptr }

@.str.3 = private unnamed_addr constant [105 x i8] c"generated/home/dtcxzyw/WorkSpace/Projects/compilers/llvm-opt-benchmark/bench/hdf5/hdf5/src/H5FSsection.c\00", align 1
@H5E_FSPACE_g = external global i64, align 8
@H5E_CANTGET_g = external global i64, align 8
@.str.7 = private unnamed_addr constant [23 x i8] c"can't get section info\00", align 1
@H5E_CANTRELEASE_g = external global i64, align 8
@.str.9 = private unnamed_addr constant [27 x i8] c"can't release section info\00", align 1
@__func__.H5FS_sect_iterate = private unnamed_addr constant [18 x i8] c"H5FS_sect_iterate\00", align 1
@H5E_BADITER_g = external global i64, align 8
@.str.16 = private unnamed_addr constant [38 x i8] c"can't iterate over section size nodes\00", align 1

; Function Attrs: nounwind uwtable
define i32 @H5FS_sect_iterate(ptr noundef %0, ptr noundef %1, ptr noundef %2, ptr noundef %3) #0 {
  %5 = alloca ptr, align 8
  %6 = alloca ptr, align 8
  %7 = alloca ptr, align 8
  %8 = alloca ptr, align 8
  %9 = alloca %struct.H5FS_iter_ud_t, align 8
  %10 = alloca i8, align 1
  %11 = alloca i32, align 4
  %12 = alloca i8, align 1
  %13 = alloca i32, align 4
  store ptr %0, ptr %5, align 8
  store ptr %1, ptr %6, align 8
  store ptr %2, ptr %7, align 8
  store ptr %3, ptr %8, align 8
  store i8 0, ptr %10, align 1
  store i32 0, ptr %11, align 4
  store i8 0, ptr %12, align 1
  %14 = load ptr, ptr %6, align 8
  %15 = getelementptr inbounds %struct.H5FS_iter_ud_t, ptr %9, i32 0, i32 0
  store ptr %14, ptr %15, align 8
  %16 = load ptr, ptr %7, align 8
  %17 = getelementptr inbounds %struct.H5FS_iter_ud_t, ptr %9, i32 0, i32 1
  store ptr %16, ptr %17, align 8
  %18 = load ptr, ptr %8, align 8
  %19 = getelementptr inbounds %struct.H5FS_iter_ud_t, ptr %9, i32 0, i32 2
  store ptr %18, ptr %19, align 8
  %20 = load ptr, ptr %6, align 8
  %21 = getelementptr inbounds %struct.H5FS_t, ptr %20, i32 0, i32 2
  %22 = load i64, ptr %21, align 8
  %23 = icmp ne i64 %22, 0
  br i1 %23, label %24, label %99

24:                                               ; preds = %4
  %25 = load ptr, ptr %5, align 8
  %26 = load ptr, ptr %6, align 8
  %27 = call i32 @H5FS__sinfo_lock(ptr noundef %25, ptr noundef %26, i32 noundef 128)
  %28 = icmp slt i32 %27, 0
  br i1 %28, label %29, label %44

29:                                               ; preds = %24
  br label %30

30:                                               ; preds = %29
  br label %31

31:                                               ; preds = %30
  br label %32

32:                                               ; preds = %31
  %33 = load i64, ptr @H5E_FSPACE_g, align 8
  %34 = load i64, ptr @H5E_CANTGET_g, align 8
  %35 = call i32 (ptr, ptr, i32, i64, i64, ptr, ...) @H5E_printf_stack(ptr noundef @.str.3, ptr noundef @__func__.H5FS_sect_iterate, i32 noundef 1865, i64 noundef %33, i64 noundef %34, ptr noundef @.str.7)
  br label %36

36:                                               ; preds = %32
  store i8 1, ptr %12, align 1
  %37 = load i8, ptr %12, align 1
  %38 = trunc i8 %37 to i1
  %39 = zext i1 %38 to i8
  store i8 %39, ptr %12, align 1
  br label %40

40:                                               ; preds = %36
  br label %41

41:                                               ; preds = %40
  store i32 -1, ptr %11, align 4
  br label %100

42:                                               ; No predecessors!
  br label %43

43:                                               ; preds = %42
  br label %44

44:                                               ; preds = %43, %24
  store i8 1, ptr %10, align 1
  store i32 0, ptr %13, align 4
  br label %45

45:                                               ; preds = %95, %44
  %46 = load i32, ptr %13, align 4
  %47 = load ptr, ptr %6, align 8
  %48 = getelementptr inbounds %struct.H5FS_t, ptr %47, i32 0, i32 17
  %49 = load ptr, ptr %48, align 8
  %50 = getelementptr inbounds %struct.H5FS_sinfo_t, ptr %49, i32 0, i32 3
  %51 = load i32, ptr %50, align 4
  %52 = icmp ult i32 %46, %51
  br i1 %52, label %53, label %98

53:                                               ; preds = %45
  %54 = load ptr, ptr %6, align 8
  %55 = getelementptr inbounds %struct.H5FS_t, ptr %54, i32 0, i32 17
  %56 = load ptr, ptr %55, align 8
  %57 = getelementptr inbounds %struct.H5FS_sinfo_t, ptr %56, i32 0, i32 1
  %58 = load ptr, ptr %57, align 8
  %59 = load i32, ptr %13, align 4
  %60 = zext i32 %59 to i64
  %61 = getelementptr inbounds %struct.H5FS_bin_t, ptr %58, i64 %60
  %62 = getelementptr inbounds %struct.H5FS_bin_t, ptr %61, i32 0, i32 3
  %63 = load ptr, ptr %62, align 8
  %64 = icmp ne ptr %63, null
  br i1 %64, label %65, label %94

65:                                               ; preds = %53
  %66 = load ptr, ptr %6, align 8
  %67 = getelementptr inbounds %struct.H5FS_t, ptr %66, i32 0, i32 17
  %68 = load ptr, ptr %67, align 8
  %69 = getelementptr inbounds %struct.H5FS_sinfo_t, ptr %68, i32 0, i32 1
  %70 = load ptr, ptr %69, align 8
  %71 = load i32, ptr %13, align 4
  %72 = zext i32 %71 to i64
  %73 = getelementptr inbounds %struct.H5FS_bin_t, ptr %70, i64 %72
  %74 = getelementptr inbounds %struct.H5FS_bin_t, ptr %73, i32 0, i32 3
  %75 = load ptr, ptr %74, align 8
  %76 = call i32 @H5SL_iterate(ptr noundef %75, ptr noundef @H5FS__iterate_node_cb, ptr noundef %9)
  %77 = icmp slt i32 %76, 0
  br i1 %77, label %78, label %93

78:                                               ; preds = %65
  br label %79

79:                                               ; preds = %78
  br label %80

80:                                               ; preds = %79
  br label %81

81:                                               ; preds = %80
  %82 = load i64, ptr @H5E_FSPACE_g, align 8
  %83 = load i64, ptr @H5E_BADITER_g, align 8
  %84 = call i32 (ptr, ptr, i32, i64, i64, ptr, ...) @H5E_printf_stack(ptr noundef @.str.3, ptr noundef @__func__.H5FS_sect_iterate, i32 noundef 1874, i64 noundef %82, i64 noundef %83, ptr noundef @.str.16)
  br label %85

85:                                               ; preds = %81
  store i8 1, ptr %12, align 1
  %86 = load i8, ptr %12, align 1
  %87 = trunc i8 %86 to i1
  %88 = zext i1 %87 to i8
  store i8 %88, ptr %12, align 1
  br label %89

89:                                               ; preds = %85
  br label %90

90:                                               ; preds = %89
  store i32 -1, ptr %11, align 4
  br label %100

91:                                               ; No predecessors!
  br label %92

92:                                               ; preds = %91
  br label %93

93:                                               ; preds = %92, %65
  br label %94

94:                                               ; preds = %93, %53
  br label %95

95:                                               ; preds = %94
  %96 = load i32, ptr %13, align 4
  %97 = add i32 %96, 1
  store i32 %97, ptr %13, align 4
  br label %45

98:                                               ; preds = %45
  br label %99

99:                                               ; preds = %98, %4
  br label %100

100:                                              ; preds = %99, %90, %41
  %101 = load i8, ptr %10, align 1
  %102 = trunc i8 %101 to i1
  br i1 %102, label %103, label %121

103:                                              ; preds = %100
  %104 = load ptr, ptr %5, align 8
  %105 = load ptr, ptr %6, align 8
  %106 = call i32 @H5FS__sinfo_unlock(ptr noundef %104, ptr noundef %105, i1 noundef zeroext false)
  %107 = icmp slt i32 %106, 0
  br i1 %107, label %108, label %121

108:                                              ; preds = %103
  br label %109

109:                                              ; preds = %108
  br label %110

110:                                              ; preds = %109
  br label %111

111:                                              ; preds = %110
  %112 = load i64, ptr @H5E_FSPACE_g, align 8
  %113 = load i64, ptr @H5E_CANTRELEASE_g, align 8
  %114 = call i32 (ptr, ptr, i32, i64, i64, ptr, ...) @H5E_printf_stack(ptr noundef @.str.3, ptr noundef @__func__.H5FS_sect_iterate, i32 noundef 1882, i64 noundef %112, i64 noundef %113, ptr noundef @.str.9)
  br label %115

115:                                              ; preds = %111
  store i8 1, ptr %12, align 1
  %116 = load i8, ptr %12, align 1
  %117 = trunc i8 %116 to i1
  %118 = zext i1 %117 to i8
  store i8 %118, ptr %12, align 1
  br label %119

119:                                              ; preds = %115
  store i32 -1, ptr %11, align 4
  br label %120

120:                                              ; preds = %119
  br label %121

121:                                              ; preds = %120, %103, %100
  %122 = load i32, ptr %11, align 4
  ret i32 %122
}