; Function Attrs: nounwind uwtable
define range(i32 -1, 1) i32 @H5FS_sect_iterate(ptr noundef %0, ptr noundef %1, ptr noundef %2, ptr noundef %3) local_unnamed_addr #0 {
  %5 = alloca %struct.H5FS_iter_ud_t, align 8
  store ptr %1, ptr %5, align 8
  %6 = getelementptr inbounds i8, ptr %5, i64 8
  store ptr %2, ptr %6, align 8
  %7 = getelementptr inbounds i8, ptr %5, i64 16
  store ptr %3, ptr %7, align 8
  %8 = getelementptr inbounds i8, ptr %1, i64 256
  %9 = load i64, ptr %8, align 8
  %.not = icmp eq i64 %9, 0
  br i1 %.not, label %45, label %10

10:                                               ; preds = %4
  %11 = tail call fastcc i32 @H5FS__sinfo_lock(ptr noundef %0, ptr noundef nonnull %1, i32 noundef 128)
  %12 = icmp slt i32 %11, 0
  br i1 %12, label %17, label %.preheader

.preheader:                                       ; preds = %10
  %13 = getelementptr inbounds i8, ptr %1, i64 360
  %14 = load ptr, ptr %13, align 8
  %15 = getelementptr inbounds i8, ptr %14, i64 260
  %16 = load i32, ptr %15, align 4
  %.not27 = icmp eq i32 %16, 0
  br i1 %.not27, label %.loopexit, label %.lr.ph

17:                                               ; preds = %10
  %18 = load i64, ptr @H5E_FSPACE_g, align 8
  %19 = load i64, ptr @H5E_CANTGET_g, align 8
  %20 = tail call i32 (ptr, ptr, i32, i64, i64, ptr, ...) @H5E_printf_stack(ptr noundef nonnull @.str.3, ptr noundef nonnull @__func__.H5FS_sect_iterate, i32 noundef 1865, i64 noundef %18, i64 noundef %19, ptr noundef nonnull @.str.7) #6
  br label %45

.lr.ph:                                           ; preds = %.preheader, %33
  %21 = phi ptr [ %34, %33 ], [ %14, %.preheader ]
  %indvars.iv = phi i64 [ %indvars.iv.next, %33 ], [ 0, %.preheader ]
  %22 = getelementptr inbounds i8, ptr %21, i64 248
  %23 = load ptr, ptr %22, align 8
  %24 = getelementptr inbounds %struct.H5FS_bin_t, ptr %23, i64 %indvars.iv, i32 3
  %25 = load ptr, ptr %24, align 8
  %.not22 = icmp eq ptr %25, null
  br i1 %.not22, label %33, label %26

26:                                               ; preds = %.lr.ph
  %27 = call i32 @H5SL_iterate(ptr noundef nonnull %25, ptr noundef nonnull @H5FS__iterate_node_cb, ptr noundef nonnull %5) #6
  %28 = icmp slt i32 %27, 0
  br i1 %28, label %29, label %._crit_edge

._crit_edge:                                      ; preds = %26
  %.pre = load ptr, ptr %13, align 8
  br label %33

29:                                               ; preds = %26
  %30 = load i64, ptr @H5E_FSPACE_g, align 8
  %31 = load i64, ptr @H5E_BADITER_g, align 8
  %32 = call i32 (ptr, ptr, i32, i64, i64, ptr, ...) @H5E_printf_stack(ptr noundef nonnull @.str.3, ptr noundef nonnull @__func__.H5FS_sect_iterate, i32 noundef 1874, i64 noundef %30, i64 noundef %31, ptr noundef nonnull @.str.16) #6
  br label %.loopexit

33:                                               ; preds = %._crit_edge, %.lr.ph
  %34 = phi ptr [ %.pre, %._crit_edge ], [ %21, %.lr.ph ]
  %indvars.iv.next = add nuw nsw i64 %indvars.iv, 1
  %35 = getelementptr inbounds i8, ptr %34, i64 260
  %36 = load i32, ptr %35, align 4
  %37 = zext i32 %36 to i64
  %38 = icmp ult i64 %indvars.iv.next, %37
  br i1 %38, label %.lr.ph, label %.loopexit

.loopexit:                                        ; preds = %33, %.preheader, %29
  %.019.ph = phi i32 [ -1, %29 ], [ 0, %.preheader ], [ 0, %33 ]
  %39 = call fastcc i32 @H5FS__sinfo_unlock(ptr noundef %0, ptr noundef nonnull %1, i1 noundef zeroext false)
  %40 = icmp slt i32 %39, 0
  br i1 %40, label %41, label %45

41:                                               ; preds = %.loopexit
  %42 = load i64, ptr @H5E_FSPACE_g, align 8
  %43 = load i64, ptr @H5E_CANTRELEASE_g, align 8
  %44 = call i32 (ptr, ptr, i32, i64, i64, ptr, ...) @H5E_printf_stack(ptr noundef nonnull @.str.3, ptr noundef nonnull @__func__.H5FS_sect_iterate, i32 noundef 1882, i64 noundef %42, i64 noundef %43, ptr noundef nonnull @.str.9) #6
  br label %45

45:                                               ; preds = %17, %4, %41, %.loopexit
  %.1 = phi i32 [ -1, %41 ], [ %.019.ph, %.loopexit ], [ -1, %17 ], [ 0, %4 ]
  ret i32 %.1
}